target datalayout = "e-m:e-p270:32:32-p271:32:32-p272:64:64-i64:64-i128:128-f80:128-n8:16:32:64-S128"
target triple = "x86_64-pc-linux-gnu"

%struct.mbedtls_ssl_context = type { ptr, i32, i32, i32, i32, i32, ptr, ptr, ptr, ptr, ptr, ptr, ptr, ptr, ptr, ptr, ptr, ptr, ptr, ptr, ptr, ptr, ptr, ptr, ptr, ptr, ptr, ptr, ptr, ptr, ptr, ptr, ptr, i32, i64, i64, i16, i64, i64, i64, i64, i32, i32, i8, i8, i32, i8, ptr, ptr, ptr, ptr, ptr, ptr, ptr, i32, i64, i64, [8 x i8], i16, ptr, ptr, ptr, i64, i32, i64, [12 x i8], [12 x i8], [32 x i8], i8, i8, ptr, ptr, %union.mbedtls_ssl_user_data_t }
%union.mbedtls_ssl_user_data_t = type { i64 }
%struct.mbedtls_ssl_transform = type { i64, i64, i64, i64, i64, [16 x i8], [16 x i8], %struct.mbedtls_md_context_t, %struct.mbedtls_md_context_t, i32, i32, %struct.mbedtls_cipher_context_t, %struct.mbedtls_cipher_context_t, i8, i8, [32 x i8], [32 x i8], [64 x i8] }
%struct.mbedtls_md_context_t = type { ptr, ptr, ptr }
%struct.mbedtls_cipher_context_t = type { ptr, i32, i32, ptr, ptr, [16 x i8], i64, [16 x i8], i64, ptr, ptr }
%struct.mbedtls_cipher_info_t = type { ptr, i32 }

@.str = private unnamed_addr constant [121 x i8] c"generated/home/dtcxzyw/WorkSpace/Projects/compilers/llvm-opt-benchmark/bench/lief/bench_build/mbed_src/library/ssl_msg.c\00", align 1
@.str.26 = private unnamed_addr constant [20 x i8] c"should never happen\00", align 1

; Function Attrs: inlinehint nounwind uwtable
define internal i32 @mbedtls_cipher_get_block_size(ptr noundef %0) #4 {
  %2 = alloca i32, align 4
  %3 = alloca ptr, align 8
  store ptr %0, ptr %3, align 8, !tbaa !169
  %4 = load ptr, ptr %3, align 8, !tbaa !169
  %5 = getelementptr inbounds nuw %struct.mbedtls_cipher_context_t, ptr %4, i32 0, i32 0
  %6 = load ptr, ptr %5, align 8, !tbaa !171
  %7 = icmp eq ptr %6, null
  br i1 %7, label %8, label %9

8:                                                ; preds = %1
  store i32 0, ptr %2, align 4
  br label %16

9:                                                ; preds = %1
  %10 = load ptr, ptr %3, align 8, !tbaa !169
  %11 = getelementptr inbounds nuw %struct.mbedtls_cipher_context_t, ptr %10, i32 0, i32 0
  %12 = load ptr, ptr %11, align 8, !tbaa !171
  %13 = getelementptr inbounds nuw %struct.mbedtls_cipher_info_t, ptr %12, i32 0, i32 1
  %14 = load i32, ptr %13, align 8
  %15 = and i32 %14, 31
  store i32 %15, ptr %2, align 4
  br label %16

16:                                               ; preds = %9, %8
  %17 = load i32, ptr %2, align 4
  ret i32 %17
}

; Function Attrs: inlinehint nounwind uwtable
define internal i32 @mbedtls_cipher_get_cipher_mode(ptr noundef %0) #4 {
  %2 = alloca i32, align 4
  %3 = alloca ptr, align 8
  store ptr %0, ptr %3, align 8, !tbaa !169
  %4 = load ptr, ptr %3, align 8, !tbaa !169
  %5 = getelementptr inbounds nuw %struct.mbedtls_cipher_context_t, ptr %4, i32 0, i32 0
  %6 = load ptr, ptr %5, align 8, !tbaa !171
  %7 = icmp eq ptr %6, null
  br i1 %7, label %8, label %9

8:                                                ; preds = %1
  store i32 0, ptr %2, align 4
  br label %17

9:                                                ; preds = %1
  %10 = load ptr, ptr %3, align 8, !tbaa !169
  %11 = getelementptr inbounds nuw %struct.mbedtls_cipher_context_t, ptr %10, i32 0, i32 0
  %12 = load ptr, ptr %11, align 8, !tbaa !171
  %13 = getelementptr inbounds nuw %struct.mbedtls_cipher_info_t, ptr %12, i32 0, i32 1
  %14 = load i32, ptr %13, align 8
  %15 = lshr i32 %14, 12
  %16 = and i32 %15, 15
  store i32 %16, ptr %2, align 4
  br label %17

17:                                               ; preds = %9, %8
  %18 = load i32, ptr %2, align 4
  ret i32 %18
}

; Function Attrs: inlinehint nounwind uwtable
define internal i64 @mbedtls_ssl_out_hdr_len(ptr noundef %0) #4 {
  %2 = alloca ptr, align 8
  store ptr %0, ptr %2, align 8, !tbaa !3
  %3 = load ptr, ptr %2, align 8, !tbaa !3
  %4 = getelementptr inbounds nuw %struct.mbedtls_ssl_context, ptr %3, i32 0, i32 52
  %5 = load ptr, ptr %4, align 8, !tbaa !107
  %6 = load ptr, ptr %2, align 8, !tbaa !3
  %7 = getelementptr inbounds nuw %struct.mbedtls_ssl_context, ptr %6, i32 0, i32 49
  %8 = load ptr, ptr %7, align 8, !tbaa !103
  %9 = ptrtoint ptr %5 to i64
  %10 = ptrtoint ptr %8 to i64
  %11 = sub i64 %9, %10
  ret i64 %11
}

; Function Attrs: nounwind uwtable
define internal i64 @ssl_get_maximum_datagram_size(ptr noundef %0) #0 {
  %2 = alloca i64, align 8
  %3 = alloca ptr, align 8
  %4 = alloca i64, align 8
  %5 = alloca i64, align 8
  %6 = alloca i32, align 4
  store ptr %0, ptr %3, align 8, !tbaa !3
  call void @llvm.lifetime.start.p0(i64 8, ptr %4) #11
  %7 = load ptr, ptr %3, align 8, !tbaa !3
  %8 = call i64 @mbedtls_ssl_get_current_mtu(ptr noundef %7)
  store i64 %8, ptr %4, align 8, !tbaa !22
  call void @llvm.lifetime.start.p0(i64 8, ptr %5) #11
  store i64 16765, ptr %5, align 8, !tbaa !22
  %9 = load i64, ptr %4, align 8, !tbaa !22
  %10 = icmp ne i64 %9, 0
  br i1 %10, label %11, label %17

11:                                               ; preds = %1
  %12 = load i64, ptr %4, align 8, !tbaa !22
  %13 = load i64, ptr %5, align 8, !tbaa !22
  %14 = icmp ult i64 %12, %13
  br i1 %14, label %15, label %17

15:                                               ; preds = %11
  %16 = load i64, ptr %4, align 8, !tbaa !22
  store i64 %16, ptr %2, align 8
  store i32 1, ptr %6, align 4
  br label %19

17:                                               ; preds = %11, %1
  %18 = load i64, ptr %5, align 8, !tbaa !22
  store i64 %18, ptr %2, align 8
  store i32 1, ptr %6, align 4
  br label %19

19:                                               ; preds = %17, %15
  call void @llvm.lifetime.end.p0(i64 8, ptr %5) #11
  call void @llvm.lifetime.end.p0(i64 8, ptr %4) #11
  %20 = load i64, ptr %2, align 8
  ret i64 %20
}

; Function Attrs: nounwind uwtable
define hidden i32 @mbedtls_ssl_get_record_expansion(ptr noundef %0) #0 {
  %2 = alloca i32, align 4
  %3 = alloca ptr, align 8
  %4 = alloca i64, align 8
  %5 = alloca ptr, align 8
  %6 = alloca i32, align 4
  %7 = alloca i64, align 8
  %8 = alloca i32, align 4
  store ptr %0, ptr %3, align 8, !tbaa !3
  call void @llvm.lifetime.start.p0(i64 8, ptr %4) #11
  store i64 0, ptr %4, align 8, !tbaa !22
  call void @llvm.lifetime.start.p0(i64 8, ptr %5) #11
  %9 = load ptr, ptr %3, align 8, !tbaa !3
  %10 = getelementptr inbounds nuw %struct.mbedtls_ssl_context, ptr %9, i32 0, i32 18
  %11 = load ptr, ptr %10, align 8, !tbaa !106
  store ptr %11, ptr %5, align 8, !tbaa !50
  call void @llvm.lifetime.start.p0(i64 4, ptr %6) #11
  call void @llvm.lifetime.start.p0(i64 8, ptr %7) #11
  %12 = load ptr, ptr %3, align 8, !tbaa !3
  %13 = call i64 @mbedtls_ssl_out_hdr_len(ptr noundef %12)
  store i64 %13, ptr %7, align 8, !tbaa !22
  %14 = load ptr, ptr %5, align 8, !tbaa !50
  %15 = icmp eq ptr %14, null
  br i1 %15, label %16, label %19

16:                                               ; preds = %1
  %17 = load i64, ptr %7, align 8, !tbaa !22
  %18 = trunc i64 %17 to i32
  store i32 %18, ptr %2, align 4
  store i32 1, ptr %8, align 4
  br label %60

19:                                               ; preds = %1
  %20 = load ptr, ptr %5, align 8, !tbaa !50
  %21 = getelementptr inbounds nuw %struct.mbedtls_ssl_transform, ptr %20, i32 0, i32 11
  %22 = call i32 @mbedtls_cipher_get_cipher_mode(ptr noundef %21)
  switch i32 %22, label %44 [
    i32 6, label %23
    i32 8, label %23
    i32 11, label %23
    i32 7, label %23
    i32 2, label %27
  ]

23:                                               ; preds = %19, %19, %19, %19
  %24 = load ptr, ptr %5, align 8, !tbaa !50
  %25 = getelementptr inbounds nuw %struct.mbedtls_ssl_transform, ptr %24, i32 0, i32 0
  %26 = load i64, ptr %25, align 8, !tbaa !168
  store i64 %26, ptr %4, align 8, !tbaa !22
  br label %46

27:                                               ; preds = %19
  %28 = load ptr, ptr %5, align 8, !tbaa !50
  %29 = getelementptr inbounds nuw %struct.mbedtls_ssl_transform, ptr %28, i32 0, i32 11
  %30 = call i32 @mbedtls_cipher_get_block_size(ptr noundef %29)
  store i32 %30, ptr %6, align 4, !tbaa !8
  %31 = load ptr, ptr %5, align 8, !tbaa !50
  %32 = getelementptr inbounds nuw %struct.mbedtls_ssl_transform, ptr %31, i32 0, i32 3
  %33 = load i64, ptr %32, align 8, !tbaa !62
  %34 = load i64, ptr %4, align 8, !tbaa !22
  %35 = add i64 %34, %33
  store i64 %35, ptr %4, align 8, !tbaa !22
  %36 = load i32, ptr %6, align 4, !tbaa !8
  %37 = zext i32 %36 to i64
  %38 = load i64, ptr %4, align 8, !tbaa !22
  %39 = add i64 %38, %37
  store i64 %39, ptr %4, align 8, !tbaa !22
  %40 = load i32, ptr %6, align 4, !tbaa !8
  %41 = zext i32 %40 to i64
  %42 = load i64, ptr %4, align 8, !tbaa !22
  %43 = add i64 %42, %41
  store i64 %43, ptr %4, align 8, !tbaa !22
  br label %46

44:                                               ; preds = %19
  %45 = load ptr, ptr %3, align 8, !tbaa !3
  call void (ptr, i32, ptr, i32, ptr, ...) @mbedtls_debug_print_msg(ptr noundef %45, i32 noundef 1, ptr noundef @.str, i32 noundef 5524, ptr noundef @.str.26)
  store i32 -27648, ptr %2, align 4
  store i32 1, ptr %8, align 4
  br label %60

46:                                               ; preds = %27, %23
  %47 = load ptr, ptr %5, align 8, !tbaa !50
  %48 = getelementptr inbounds nuw %struct.mbedtls_ssl_transform, ptr %47, i32 0, i32 14
  %49 = load i8, ptr %48, align 1, !tbaa !65
  %50 = zext i8 %49 to i32
  %51 = icmp ne i32 %50, 0
  br i1 %51, label %52, label %55

52:                                               ; preds = %46
  %53 = load i64, ptr %4, align 8, !tbaa !22
  %54 = add i64 %53, 16
  store i64 %54, ptr %4, align 8, !tbaa !22
  br label %55

55:                                               ; preds = %52, %46
  %56 = load i64, ptr %7, align 8, !tbaa !22
  %57 = load i64, ptr %4, align 8, !tbaa !22
  %58 = add i64 %56, %57
  %59 = trunc i64 %58 to i32
  store i32 %59, ptr %2, align 4
  store i32 1, ptr %8, align 4
  br label %60

60:                                               ; preds = %55, %44, %16
  call void @llvm.lifetime.end.p0(i64 8, ptr %7) #11
  call void @llvm.lifetime.end.p0(i64 4, ptr %6) #11
  call void @llvm.lifetime.end.p0(i64 8, ptr %5) #11
  call void @llvm.lifetime.end.p0(i64 8, ptr %4) #11
  %61 = load i32, ptr %2, align 4
  ret i32 %61
}

; Function Attrs: nounwind uwtable
define internal i32 @ssl_get_remaining_space_in_datagram(ptr noundef %0) #0 {
  %2 = alloca i32, align 4
  %3 = alloca ptr, align 8
  %4 = alloca i64, align 8
  %5 = alloca i64, align 8
  %6 = alloca i32, align 4
  store ptr %0, ptr %3, align 8, !tbaa !3
  call void @llvm.lifetime.start.p0(i64 8, ptr %4) #11
  %7 = load ptr, ptr %3, align 8, !tbaa !3
  %8 = getelementptr inbounds nuw %struct.mbedtls_ssl_context, ptr %7, i32 0, i32 56
  %9 = load i64, ptr %8, align 8, !tbaa !101
  store i64 %9, ptr %4, align 8, !tbaa !22
  call void @llvm.lifetime.start.p0(i64 8, ptr %5) #11
  %10 = load ptr, ptr %3, align 8, !tbaa !3
  %11 = call i64 @ssl_get_maximum_datagram_size(ptr noundef %10)
  store i64 %11, ptr %5, align 8, !tbaa !22
  %12 = load i64, ptr %4, align 8, !tbaa !22
  %13 = load i64, ptr %5, align 8, !tbaa !22
  %14 = icmp ugt i64 %12, %13
  br i1 %14, label %15, label %16

15:                                               ; preds = %1
  store i32 -27648, ptr %2, align 4
  store i32 1, ptr %6, align 4
  br label %21

16:                                               ; preds = %1
  %17 = load i64, ptr %5, align 8, !tbaa !22
  %18 = load i64, ptr %4, align 8, !tbaa !22
  %19 = sub i64 %17, %18
  %20 = trunc i64 %19 to i32
  store i32 %20, ptr %2, align 4
  store i32 1, ptr %6, align 4
  br label %21

21:                                               ; preds = %16, %15
  call void @llvm.lifetime.end.p0(i64 8, ptr %5) #11
  call void @llvm.lifetime.end.p0(i64 8, ptr %4) #11
  %22 = load i32, ptr %2, align 4
  ret i32 %22
}

; Function Attrs: nounwind uwtable
define internal i32 @ssl_get_remaining_payload_in_datagram(ptr noundef %0) #0 {
  %2 = alloca i32, align 4
  %3 = alloca ptr, align 8
  %4 = alloca i32, align 4
  %5 = alloca i64, align 8
  %6 = alloca i64, align 8
  %7 = alloca i64, align 8
  %8 = alloca i64, align 8
  %9 = alloca i32, align 4
  store ptr %0, ptr %3, align 8, !tbaa !3
  call void @llvm.lifetime.start.p0(i64 4, ptr %4) #11
  store i32 -110, ptr %4, align 4, !tbaa !8
  call void @llvm.lifetime.start.p0(i64 8, ptr %5) #11
  call void @llvm.lifetime.start.p0(i64 8, ptr %6) #11
  call void @llvm.lifetime.start.p0(i64 8, ptr %7) #11
  store i64 16384, ptr %7, align 8, !tbaa !22
  call void @llvm.lifetime.start.p0(i64 8, ptr %8) #11
  %10 = load ptr, ptr %3, align 8, !tbaa !3
  %11 = call i64 @mbedtls_ssl_get_output_max_frag_len(ptr noundef %10)
  store i64 %11, ptr %8, align 8, !tbaa !22
  %12 = load i64, ptr %7, align 8, !tbaa !22
  %13 = load i64, ptr %8, align 8, !tbaa !22
  %14 = icmp ugt i64 %12, %13
  br i1 %14, label %15, label %17

15:                                               ; preds = %1
  %16 = load i64, ptr %8, align 8, !tbaa !22
  store i64 %16, ptr %7, align 8, !tbaa !22
  br label %17

17:                                               ; preds = %15, %1
  %18 = load i64, ptr %7, align 8, !tbaa !22
  %19 = load ptr, ptr %3, align 8, !tbaa !3
  %20 = getelementptr inbounds nuw %struct.mbedtls_ssl_context, ptr %19, i32 0, i32 56
  %21 = load i64, ptr %20, align 8, !tbaa !101
  %22 = icmp ule i64 %18, %21
  br i1 %22, label %23, label %24

23:                                               ; preds = %17
  store i32 0, ptr %2, align 4
  store i32 1, ptr %9, align 4
  br label %64

24:                                               ; preds = %17
  %25 = load ptr, ptr %3, align 8, !tbaa !3
  %26 = getelementptr inbounds nuw %struct.mbedtls_ssl_context, ptr %25, i32 0, i32 56
  %27 = load i64, ptr %26, align 8, !tbaa !101
  %28 = load i64, ptr %7, align 8, !tbaa !22
  %29 = sub i64 %28, %27
  store i64 %29, ptr %7, align 8, !tbaa !22
  %30 = load ptr, ptr %3, align 8, !tbaa !3
  %31 = call i32 @ssl_get_remaining_space_in_datagram(ptr noundef %30)
  store i32 %31, ptr %4, align 4, !tbaa !8
  %32 = load i32, ptr %4, align 4, !tbaa !8
  %33 = icmp slt i32 %32, 0
  br i1 %33, label %34, label %36

34:                                               ; preds = %24
  %35 = load i32, ptr %4, align 4, !tbaa !8
  store i32 %35, ptr %2, align 4
  store i32 1, ptr %9, align 4
  br label %64

36:                                               ; preds = %24
  %37 = load i32, ptr %4, align 4, !tbaa !8
  %38 = sext i32 %37 to i64
  store i64 %38, ptr %5, align 8, !tbaa !22
  %39 = load ptr, ptr %3, align 8, !tbaa !3
  %40 = call i32 @mbedtls_ssl_get_record_expansion(ptr noundef %39)
  store i32 %40, ptr %4, align 4, !tbaa !8
  %41 = load i32, ptr %4, align 4, !tbaa !8
  %42 = icmp slt i32 %41, 0
  br i1 %42, label %43, label %45

43:                                               ; preds = %36
  %44 = load i32, ptr %4, align 4, !tbaa !8
  store i32 %44, ptr %2, align 4
  store i32 1, ptr %9, align 4
  br label %64

45:                                               ; preds = %36
  %46 = load i32, ptr %4, align 4, !tbaa !8
  %47 = sext i32 %46 to i64
  store i64 %47, ptr %6, align 8, !tbaa !22
  %48 = load i64, ptr %5, align 8, !tbaa !22
  %49 = load i64, ptr %6, align 8, !tbaa !22
  %50 = icmp ule i64 %48, %49
  br i1 %50, label %51, label %52

51:                                               ; preds = %45
  store i32 0, ptr %2, align 4
  store i32 1, ptr %9, align 4
  br label %64

52:                                               ; preds = %45
  %53 = load i64, ptr %6, align 8, !tbaa !22
  %54 = load i64, ptr %5, align 8, !tbaa !22
  %55 = sub i64 %54, %53
  store i64 %55, ptr %5, align 8, !tbaa !22
  %56 = load i64, ptr %5, align 8, !tbaa !22
  %57 = load i64, ptr %7, align 8, !tbaa !22
  %58 = icmp uge i64 %56, %57
  br i1 %58, label %59, label %61

59:                                               ; preds = %52
  %60 = load i64, ptr %7, align 8, !tbaa !22
  store i64 %60, ptr %5, align 8, !tbaa !22
  br label %61

61:                                               ; preds = %59, %52
  %62 = load i64, ptr %5, align 8, !tbaa !22
  %63 = trunc i64 %62 to i32
  store i32 %63, ptr %2, align 4
  store i32 1, ptr %9, align 4
  br label %64

64:                                               ; preds = %61, %51, %43, %34, %23
  call void @llvm.lifetime.end.p0(i64 8, ptr %8) #11
  call void @llvm.lifetime.end.p0(i64 8, ptr %7) #11
  call void @llvm.lifetime.end.p0(i64 8, ptr %6) #11
  call void @llvm.lifetime.end.p0(i64 8, ptr %5) #11
  call void @llvm.lifetime.end.p0(i64 4, ptr %4) #11
  %65 = load i32, ptr %2, align 4
  ret i32 %65
}