; Function Attrs: nounwind uwtable
define internal fastcc range(i32 -2147483648, 16385) i32 @ssl_get_remaining_payload_in_datagram(ptr noundef %0) unnamed_addr #0 {
  %2 = tail call i64 @mbedtls_ssl_get_output_max_frag_len(ptr noundef %0) #19
  %spec.select = tail call i64 @llvm.umin.i64(i64 %2, i64 16384)
  %3 = getelementptr inbounds nuw i8, ptr %0, i64 408
  %4 = load i64, ptr %3, align 8, !tbaa !95
  %.not = icmp ugt i64 %spec.select, %4
  br i1 %.not, label %5, label %45

5:                                                ; preds = %1
  %6 = sub nuw nsw i64 %spec.select, %4
  %7 = tail call i64 @mbedtls_ssl_get_current_mtu(ptr noundef nonnull %0) #19
  %8 = add i64 %7, -1
  %or.cond.i.i = icmp ult i64 %8, 16764
  %.0.i.i = select i1 %or.cond.i.i, i64 %7, i64 16765
  %9 = icmp ugt i64 %4, %.0.i.i
  %10 = sub nuw nsw i64 %.0.i.i, %4
  %11 = trunc nuw nsw i64 %10 to i32
  %.0.i = select i1 %9, i32 -27648, i32 %11
  %12 = icmp slt i32 %.0.i, 0
  br i1 %12, label %45, label %13

13:                                               ; preds = %5
  %14 = getelementptr inbounds nuw i8, ptr %0, i64 128
  %15 = load ptr, ptr %14, align 8, !tbaa !101
  %16 = getelementptr i8, ptr %0, i64 352
  %.val.i = load ptr, ptr %16, align 8, !tbaa !96
  %17 = getelementptr i8, ptr %0, i64 376
  %.val20.i = load ptr, ptr %17, align 8, !tbaa !97
  %18 = ptrtoint ptr %.val20.i to i64
  %19 = ptrtoint ptr %.val.i to i64
  %20 = sub i64 %18, %19
  %21 = icmp eq ptr %15, null
  br i1 %21, label %mbedtls_ssl_get_record_expansion.exit, label %22

22:                                               ; preds = %13
  %23 = getelementptr inbounds nuw i8, ptr %15, i64 128
  %.val21.i = load ptr, ptr %23, align 8, !tbaa !120
  %24 = icmp eq ptr %.val21.i, null
  br i1 %24, label %mbedtls_ssl_get_record_expansion.exit.thread, label %mbedtls_cipher_get_cipher_mode.exit.i

mbedtls_cipher_get_cipher_mode.exit.i:            ; preds = %22
  %25 = getelementptr inbounds nuw i8, ptr %.val21.i, i64 8
  %26 = load i32, ptr %25, align 8
  %27 = lshr i32 %26, 12
  %28 = and i32 %27, 15
  switch i32 %28, label %mbedtls_ssl_get_record_expansion.exit.thread [
    i32 6, label %29
    i32 8, label %29
    i32 11, label %29
    i32 7, label %29
    i32 2, label %mbedtls_cipher_get_block_size.exit.i
  ]

29:                                               ; preds = %mbedtls_cipher_get_cipher_mode.exit.i, %mbedtls_cipher_get_cipher_mode.exit.i, %mbedtls_cipher_get_cipher_mode.exit.i, %mbedtls_cipher_get_cipher_mode.exit.i
  %30 = load i64, ptr %15, align 8, !tbaa !121
  br label %36

mbedtls_cipher_get_block_size.exit.i:             ; preds = %mbedtls_cipher_get_cipher_mode.exit.i
  %31 = getelementptr inbounds nuw i8, ptr %15, i64 24
  %32 = load i64, ptr %31, align 8, !tbaa !57
  %33 = shl i32 %26, 1
  %34 = and i32 %33, 62
  %reass.add.i = zext nneg i32 %34 to i64
  %35 = add i64 %32, %reass.add.i
  br label %36

mbedtls_ssl_get_record_expansion.exit.thread:     ; preds = %22, %mbedtls_cipher_get_cipher_mode.exit.i
  tail call void (ptr, i32, ptr, i32, ptr, ...) @mbedtls_debug_print_msg(ptr noundef nonnull %0, i32 noundef 1, ptr noundef nonnull @.str, i32 noundef 5524, ptr noundef nonnull @.str.26) #19
  br label %45

36:                                               ; preds = %mbedtls_cipher_get_block_size.exit.i, %29
  %.018.i = phi i64 [ %35, %mbedtls_cipher_get_block_size.exit.i ], [ %30, %29 ]
  %37 = getelementptr inbounds nuw i8, ptr %15, i64 321
  %38 = load i8, ptr %37, align 1, !tbaa !63
  %.not.i = icmp eq i8 %38, 0
  %39 = add i64 %.018.i, 16
  %spec.select.i = select i1 %.not.i, i64 %.018.i, i64 %39
  %40 = add i64 %spec.select.i, %20
  br label %mbedtls_ssl_get_record_expansion.exit

mbedtls_ssl_get_record_expansion.exit:            ; preds = %13, %36
  %.0.i38.in = phi i64 [ %40, %36 ], [ %20, %13 ]
  %.0.i38 = trunc i64 %.0.i38.in to i32
  %41 = icmp slt i32 %.0.i38, 0
  br i1 %41, label %45, label %42

42:                                               ; preds = %mbedtls_ssl_get_record_expansion.exit
  %.not35 = icmp samesign ugt i32 %.0.i, %.0.i38
  br i1 %.not35, label %43, label %45

43:                                               ; preds = %42
  %narrow = sub nuw nsw i32 %.0.i, %.0.i38
  %44 = zext nneg i32 %narrow to i64
  %spec.select3740 = tail call i64 @llvm.umin.i64(i64 %6, i64 %44)
  %spec.select37 = trunc nuw nsw i64 %spec.select3740 to i32
  br label %45

45:                                               ; preds = %mbedtls_ssl_get_record_expansion.exit.thread, %42, %mbedtls_ssl_get_record_expansion.exit, %5, %1, %43
  %.0 = phi i32 [ %spec.select37, %43 ], [ 0, %1 ], [ %.0.i, %5 ], [ %.0.i38, %mbedtls_ssl_get_record_expansion.exit ], [ 0, %42 ], [ -27648, %mbedtls_ssl_get_record_expansion.exit.thread ]
  ret i32 %.0
}